#include <math.h>
#include <stdio.h>
#include <stdlib.h>
#include <string.h>


int main()
{
int n,i,j;
char s[1000][300];
scanf("%d",&n);
for(i=0;i<n;i++)
{
scanf("%s",s[i]);
}
for(i=0;i<n;i++)
{
for(j=0;j<strlen(s[i]);j++)
{
if(s[i][j]=='A')
{
s[i][j]='T';
}
else if(s[i][j]=='T')
{
s[i][j]='A';
}
else if(s[i][j]=='C')
{
s[i][j]='G';
}
else
{
s[i][j]='C';
}
if(j==strlen(s[i])-1)
{
printf("%s\n",s[i]);
}

}
}
return 0;
}